target datalayout = "e-m:e-p270:32:32-p271:32:32-p272:64:64-i64:64-i128:128-f80:128-n8:16:32:64-S128"
target triple = "x86_64-pc-linux-gnu"

%struct.NFA = type { i32, i32, i8, i8, i8, i8, %union.anon, i32, i32, i32, i32, i32, i32, i32, [20 x i8] }
%union.anon = type { i16 }

; Function Attrs: nounwind uwtable
define hidden signext i8 @nfaInAnyAcceptState(ptr noundef %0, ptr noundef %1) #0 {
  %3 = alloca i8, align 1
  %4 = alloca ptr, align 8
  %5 = alloca ptr, align 8
  %6 = alloca i32, align 4
  %7 = alloca i32, align 4
  %8 = alloca i32, align 4
  %9 = alloca i32, align 4
  %10 = alloca i32, align 4
  store ptr %0, ptr %4, align 8
  store ptr %1, ptr %5, align 8
  %11 = load ptr, ptr %4, align 8
  %12 = getelementptr inbounds nuw %struct.NFA, ptr %11, i32 0, i32 2
  %13 = load i8, ptr %12, align 8
  %14 = zext i8 %13 to i32
  switch i32 %14, label %110 [
    i32 0, label %15
    i32 1, label %19
    i32 2, label %23
    i32 3, label %27
    i32 4, label %31
    i32 5, label %35
    i32 6, label %39
    i32 7, label %43
    i32 8, label %47
    i32 9, label %51
    i32 10, label %55
    i32 11, label %58
    i32 12, label %62
    i32 13, label %66
    i32 14, label %70
    i32 15, label %74
    i32 16, label %78
    i32 17, label %82
    i32 18, label %86
    i32 19, label %90
    i32 20, label %94
    i32 21, label %98
    i32 22, label %101
    i32 23, label %104
    i32 24, label %107
  ]

15:                                               ; preds = %2
  %16 = load ptr, ptr %4, align 8
  %17 = load ptr, ptr %5, align 8
  %18 = call signext i8 @nfaExecLimEx32_inAnyAccept(ptr noundef %16, ptr noundef %17)
  store i8 %18, ptr %3, align 1
  br label %112

19:                                               ; preds = %2
  %20 = load ptr, ptr %4, align 8
  %21 = load ptr, ptr %5, align 8
  %22 = call signext i8 @nfaExecLimEx64_inAnyAccept(ptr noundef %20, ptr noundef %21)
  store i8 %22, ptr %3, align 1
  br label %112

23:                                               ; preds = %2
  %24 = load ptr, ptr %4, align 8
  %25 = load ptr, ptr %5, align 8
  %26 = call signext i8 @nfaExecLimEx128_inAnyAccept(ptr noundef %24, ptr noundef %25)
  store i8 %26, ptr %3, align 1
  br label %112

27:                                               ; preds = %2
  %28 = load ptr, ptr %4, align 8
  %29 = load ptr, ptr %5, align 8
  %30 = call signext i8 @nfaExecLimEx256_inAnyAccept(ptr noundef %28, ptr noundef %29)
  store i8 %30, ptr %3, align 1
  br label %112

31:                                               ; preds = %2
  %32 = load ptr, ptr %4, align 8
  %33 = load ptr, ptr %5, align 8
  %34 = call signext i8 @nfaExecLimEx384_inAnyAccept(ptr noundef %32, ptr noundef %33)
  store i8 %34, ptr %3, align 1
  br label %112

35:                                               ; preds = %2
  %36 = load ptr, ptr %4, align 8
  %37 = load ptr, ptr %5, align 8
  %38 = call signext i8 @nfaExecLimEx512_inAnyAccept(ptr noundef %36, ptr noundef %37)
  store i8 %38, ptr %3, align 1
  br label %112

39:                                               ; preds = %2
  %40 = load ptr, ptr %4, align 8
  %41 = load ptr, ptr %5, align 8
  %42 = call signext i8 @nfaExecMcClellan8_inAnyAccept(ptr noundef %40, ptr noundef %41)
  store i8 %42, ptr %3, align 1
  br label %112

43:                                               ; preds = %2
  %44 = load ptr, ptr %4, align 8
  %45 = load ptr, ptr %5, align 8
  %46 = call signext i8 @nfaExecMcClellan16_inAnyAccept(ptr noundef %44, ptr noundef %45)
  store i8 %46, ptr %3, align 1
  br label %112

47:                                               ; preds = %2
  %48 = load ptr, ptr %4, align 8
  %49 = load ptr, ptr %5, align 8
  %50 = call signext i8 @nfaExecGough8_inAnyAccept(ptr noundef %48, ptr noundef %49)
  store i8 %50, ptr %3, align 1
  br label %112

51:                                               ; preds = %2
  %52 = load ptr, ptr %4, align 8
  %53 = load ptr, ptr %5, align 8
  %54 = call signext i8 @nfaExecGough16_inAnyAccept(ptr noundef %52, ptr noundef %53)
  store i8 %54, ptr %3, align 1
  br label %112

55:                                               ; preds = %2
  store i32 0, ptr %6, align 4
  %56 = load i32, ptr %6, align 4
  %57 = trunc i32 %56 to i8
  store i8 %57, ptr %3, align 1
  br label %112

58:                                               ; preds = %2
  %59 = load ptr, ptr %4, align 8
  %60 = load ptr, ptr %5, align 8
  %61 = call signext i8 @nfaExecLbrDot_inAnyAccept(ptr noundef %59, ptr noundef %60)
  store i8 %61, ptr %3, align 1
  br label %112

62:                                               ; preds = %2
  %63 = load ptr, ptr %4, align 8
  %64 = load ptr, ptr %5, align 8
  %65 = call signext i8 @nfaExecLbrVerm_inAnyAccept(ptr noundef %63, ptr noundef %64)
  store i8 %65, ptr %3, align 1
  br label %112

66:                                               ; preds = %2
  %67 = load ptr, ptr %4, align 8
  %68 = load ptr, ptr %5, align 8
  %69 = call signext i8 @nfaExecLbrNVerm_inAnyAccept(ptr noundef %67, ptr noundef %68)
  store i8 %69, ptr %3, align 1
  br label %112

70:                                               ; preds = %2
  %71 = load ptr, ptr %4, align 8
  %72 = load ptr, ptr %5, align 8
  %73 = call signext i8 @nfaExecLbrShuf_inAnyAccept(ptr noundef %71, ptr noundef %72)
  store i8 %73, ptr %3, align 1
  br label %112

74:                                               ; preds = %2
  %75 = load ptr, ptr %4, align 8
  %76 = load ptr, ptr %5, align 8
  %77 = call signext i8 @nfaExecLbrTruf_inAnyAccept(ptr noundef %75, ptr noundef %76)
  store i8 %77, ptr %3, align 1
  br label %112

78:                                               ; preds = %2
  %79 = load ptr, ptr %4, align 8
  %80 = load ptr, ptr %5, align 8
  %81 = call signext i8 @nfaExecCastle_inAnyAccept(ptr noundef %79, ptr noundef %80)
  store i8 %81, ptr %3, align 1
  br label %112

82:                                               ; preds = %2
  %83 = load ptr, ptr %4, align 8
  %84 = load ptr, ptr %5, align 8
  %85 = call signext i8 @nfaExecSheng_inAnyAccept(ptr noundef %83, ptr noundef %84)
  store i8 %85, ptr %3, align 1
  br label %112

86:                                               ; preds = %2
  %87 = load ptr, ptr %4, align 8
  %88 = load ptr, ptr %5, align 8
  %89 = call signext i8 @nfaExecTamarama_inAnyAccept(ptr noundef %87, ptr noundef %88)
  store i8 %89, ptr %3, align 1
  br label %112

90:                                               ; preds = %2
  %91 = load ptr, ptr %4, align 8
  %92 = load ptr, ptr %5, align 8
  %93 = call signext i8 @nfaExecMcSheng8_inAnyAccept(ptr noundef %91, ptr noundef %92)
  store i8 %93, ptr %3, align 1
  br label %112

94:                                               ; preds = %2
  %95 = load ptr, ptr %4, align 8
  %96 = load ptr, ptr %5, align 8
  %97 = call signext i8 @nfaExecMcSheng16_inAnyAccept(ptr noundef %95, ptr noundef %96)
  store i8 %97, ptr %3, align 1
  br label %112

98:                                               ; preds = %2
  store i32 0, ptr %7, align 4
  %99 = load i32, ptr %7, align 4
  %100 = trunc i32 %99 to i8
  store i8 %100, ptr %3, align 1
  br label %112

101:                                              ; preds = %2
  store i32 0, ptr %8, align 4
  %102 = load i32, ptr %8, align 4
  %103 = trunc i32 %102 to i8
  store i8 %103, ptr %3, align 1
  br label %112

104:                                              ; preds = %2
  store i32 0, ptr %9, align 4
  %105 = load i32, ptr %9, align 4
  %106 = trunc i32 %105 to i8
  store i8 %106, ptr %3, align 1
  br label %112

107:                                              ; preds = %2
  store i32 0, ptr %10, align 4
  %108 = load i32, ptr %10, align 4
  %109 = trunc i32 %108 to i8
  store i8 %109, ptr %3, align 1
  br label %112

110:                                              ; preds = %2
  br label %111

111:                                              ; preds = %110
  store i8 0, ptr %3, align 1
  br label %112

112:                                              ; preds = %111, %107, %104, %101, %98, %94, %90, %86, %82, %78, %74, %70, %66, %62, %58, %55, %51, %47, %43, %39, %35, %31, %27, %23, %19, %15
  %113 = load i8, ptr %3, align 1
  ret i8 %113
}